target datalayout = "e-m:e-p270:32:32-p271:32:32-p272:64:64-i64:64-i128:128-f80:128-n8:16:32:64-S128"
target triple = "x86_64-pc-linux-gnu"

%struct.message = type { ptr, i32, i32, ptr, ptr, ptr, ptr, ptr, ptr, i64, i32, ptr, ptr, ptr, ptr, ptr, i8, i8, i8, i8, ptr }

; Function Attrs: nounwind uwtable
define ptr @messageGetJObj(ptr noundef %0) #0 {
  %2 = alloca ptr, align 8
  %3 = alloca ptr, align 8
  store ptr %0, ptr %3, align 8
  %4 = load ptr, ptr %3, align 8
  %5 = icmp eq ptr %4, null
  br i1 %5, label %6, label %7

6:                                                ; preds = %1
  store ptr null, ptr %2, align 8
  br label %20

7:                                                ; preds = %1
  %8 = load ptr, ptr %3, align 8
  %9 = getelementptr inbounds %struct.message, ptr %8, i32 0, i32 20
  %10 = load ptr, ptr %9, align 8
  %11 = icmp eq ptr %10, null
  br i1 %11, label %12, label %16

12:                                               ; preds = %7
  %13 = call ptr @cli_jsonobj(ptr noundef null, ptr noundef null)
  %14 = load ptr, ptr %3, align 8
  %15 = getelementptr inbounds %struct.message, ptr %14, i32 0, i32 20
  store ptr %13, ptr %15, align 8
  br label %16

16:                                               ; preds = %12, %7
  %17 = load ptr, ptr %3, align 8
  %18 = getelementptr inbounds %struct.message, ptr %17, i32 0, i32 20
  %19 = load ptr, ptr %18, align 8
  store ptr %19, ptr %2, align 8
  br label %20

20:                                               ; preds = %16, %6
  %21 = load ptr, ptr %2, align 8
  ret ptr %21
}