; Function Attrs: nounwind uwtable
define ptr @messageGetJObj(ptr noundef %0) local_unnamed_addr #2 {
  %2 = icmp eq ptr %0, null
  br i1 %2, label %9, label %3

3:                                                ; preds = %1
  %4 = getelementptr inbounds i8, ptr %0, i64 128
  %5 = load ptr, ptr %4, align 8
  %6 = icmp eq ptr %5, null
  br i1 %6, label %7, label %9

7:                                                ; preds = %3
  %8 = tail call ptr @cli_jsonobj(ptr noundef null, ptr noundef null) #21
  store ptr %8, ptr %4, align 8
  br label %9

9:                                                ; preds = %3, %7, %1
  %.0 = phi ptr [ null, %1 ], [ %8, %7 ], [ %5, %3 ]
  ret ptr %.0
}